(dp0
Vsvensk-folk-swedish-alt-country
p1
(dp2
Vpakistan
p3
I1
sVromania
p4
I1
sVseychelles
p5
I1
sVsamoa
p6
I1
sVegypt
p7
I1
sVlebanon
p8
I2
sVsenegal
p9
I1
sVmozambique
p10
I1
sVluxembourg
p11
I1
sVkenya
p12
I1
sVtaiwan
p13
I2
sVnicaragua
p14
I1
sVbotswana
p15
I2
sVturkey
p16
I1
sVqatar
p17
I1
sVpalau
p18
I1
sVbhutan
p19
I4
sVsouth africa
p20
I2
sVlithuania
p21
I1
sVliechtenstein
p22
I1
sVcambodia
p23
I1
sVandorra
p24
I1
sVmalta
p25
I1
sVbahrain
p26
I1
sValgeria
p27
I1
sVsingapore
p28
I1
sVunited arab emirates
p29
I1
sVsaint lucia
p30
I1
sVmonaco
p31
I7
sVsaudi arabia
p32
I1
sVsaint kitts and nevis
p33
I1
sVsri lanka
p34
I2
sVzimbabwe
p35
I3
sVarmenia
p36
I1
sViraq
p37
I1
sVdominica
p38
I2
sVmaldives
p39
I1
sVmauritania
p40
I2
sVnetherlands
p41
I1
sVoman
p42
I1
sVpoland
p43
I1
sVequatorial guinea
p44
I1
sVaustria
p45
I1
sVmauritius
p46
I1
sVmorocco
p47
I2
sVsweden
p48
I6
sVmali
p49
I1
sVswitzerland
p50
I2
sVyemen
p51
I1
ssVbrit-pop-rock-piano-post
p52
(dp53
Vazerbaijan
p54
I2
sVuzbekistan
p55
I4
sVsenegal
p56
I1
sVcambodia
p57
I1
sVjapan
p58
I3
sVtaiwan
p59
I5
sVcyprus
p60
I1
sVbarbados
p61
I2
sVbhutan
p62
I2
sVlithuania
p63
I2
sVmongolia
p64
I3
sVunited kingdom
p65
I2
sVegypt
p66
I3
sVrwanda
p67
I2
sVargentina
p68
I3
sVnorway
p69
I1
sVghana
p70
I4
sVaustralia
p71
I1
sVcuba
p72
I2
sVzambia
p73
I1
sVguatemala
p74
I3
sVzimbabwe
p75
I3
sVbelgium
p76
I1
sVhaiti
p77
I4
sVkazakhstan
p78
I4
sVsan marino
p79
I2
sVkyrgyzstan
p80
I1
sVnetherlands
p81
I3
sVdenmark
p82
I3
sVphilippines
p83
I6
sVmoldova
p84
I2
sVlatvia
p85
I1
sVnamibia
p86
I3
sVchad
p87
I1
sVswitzerland
p88
I2
sVbulgaria
p89
I2
sVjamaica
p90
I3
sValbania
p91
I2
sVangola
p92
I2
sVserbia
p93
I1
sVmalaysia
p94
I6
sVmozambique
p95
I2
sVgreece
p96
I1
sVnicaragua
p97
I2
sVbrazil
p98
I3
sVafghanistan
p99
I1
sVqatar
p100
I4
sVpalau
p101
I5
sVturkmenistan
p102
I2
sVequatorial guinea
p103
I1
sVsudan
p104
I2
sVkuwait
p105
I2
sVpanama
p106
I3
sVnepal
p107
I5
sVluxembourg
p108
I3
sVcroatia
p109
I1
sVvenezuela
p110
I3
sVunited arab emirates
p111
I2
sVguyana
p112
I2
sVsaint kitts and nevis
p113
I3
sVtrinidad and tobago
p114
I3
sVchina
p115
I3
sVarmenia
p116
I3
sVthailand
p117
I4
sViraq
p118
I3
sVbangladesh
p119
I5
sVukraine
p120
I2
sVgambia
p121
I1
sVfinland
p122
I1
sVmacedonia
p123
I1
sVmauritius
p124
I2
sVantigua and barbuda
p125
I3
sVdominican republic
p126
I2
sVpakistan
p127
I3
sVromania
p128
I2
sVseychelles
p129
I3
sVczech republic
p130
I2
sVmyanmar
p131
I3
sVtunisia
p132
I1
sVunited states
p133
I1
sVaustria
p134
I2
sVhungary
p135
I2
sVcolombia
p136
I3
sVhonduras
p137
I3
sVnew zealand
p138
I1
sVfiji
p139
I2
sVturkey
p140
I2
sVandorra
p141
I1
sVsaudi arabia
p142
I3
sVbelize
p143
I3
sVestonia
p144
I2
sVmexico
p145
I3
sVfrance
p146
I2
sVbahamas
p147
I2
sVslovakia
p148
I2
sVperu
p149
I3
sVnigeria
p150
I2
sVbolivia
p151
I3
sVmalawi
p152
I1
sVecuador
p153
I3
sVisrael
p154
I2
sVswaziland
p155
I1
sValgeria
p156
I4
sVlebanon
p157
I1
sVmontenegro
p158
I1
sVtajikistan
p159
I3
sVsri lanka
p160
I4
sVtogo
p161
I3
sVjordan
p162
I2
sVchile
p163
I3
sVoman
p164
I4
sVspain
p165
I2
sVgeorgia
p166
I1
sVmorocco
p167
I3
sVsweden
p168
I1
sVgabon
p169
I4
sVmali
p170
I2
sVrussian federation
p171
I2
sVgrenada
p172
I3
sVyemen
p173
I2
sVbahrain
p174
I4
sVportugal
p175
I1
sVuruguay
p176
I3
sVindia
p177
I4
sVburundi
p178
I2
sVbelarus
p179
I1
sVsaint vincent and the grenadines
p180
I3
sVuganda
p181
I4
sVparaguay
p182
I3
sVkenya
p183
I3
sVireland
p184
I2
sVbotswana
p185
I4
sVitaly
p186
I2
sVsouth africa
p187
I1
sVmalta
p188
I3
sVethiopia
p189
I5
sVvanuatu
p190
I6
sVmadagascar
p191
I3
sVcameroon
p192
I4
sVbenin
p193
I2
sVcanada
p194
I1
sVsingapore
p195
I5
sVsolomon islands
p196
I2
sViceland
p197
I1
sVsaint lucia
p198
I1
sVcosta rica
p199
I2
sVslovenia
p200
I2
sVgermany
p201
I2
sVdominica
p202
I4
sVsuriname
p203
I5
sVtonga
p204
I3
sVmaldives
p205
I4
sVel salvador
p206
I4
sVpoland
p207
I2
sVindonesia
p208
I7
sVcape verde
p209
I3
sVliechtenstein
p210
I1
sVmonaco
p211
I4
ssVroll-oldies-60s-heavy-70s
p212
(dp213
Vazerbaijan
p214
I8
sVuzbekistan
p215
I8
sVdjibouti
p216
I16
sVcambodia
p217
I4
sVjapan
p218
I6
sVtaiwan
p219
I2
sVcyprus
p220
I15
sVbarbados
p221
I3
sVlithuania
p222
I11
sVmongolia
p223
I3
sVunited kingdom
p224
I9
sVegypt
p225
I10
sVrwanda
p226
I3
sVargentina
p227
I9
sVnorway
p228
I9
sVghana
p229
I4
sVaustralia
p230
I5
sVcuba
p231
I4
sVzambia
p232
I1
sVguatemala
p233
I10
sVzimbabwe
p234
I3
sVbelgium
p235
I12
sVhaiti
p236
I1
sVkazakhstan
p237
I5
sVsan marino
p238
I9
sVmauritania
p239
I9
sVkyrgyzstan
p240
I9
sVnetherlands
p241
I9
sVdenmark
p242
I9
sVphilippines
p243
I1
sVsenegal
p244
I5
sVmoldova
p245
I10
sVlatvia
p246
I8
sVnamibia
p247
I9
sVswitzerland
p248
I9
sVbulgaria
p249
I11
sValbania
p250
I7
sVsamoa
p251
I2
sVserbia
p252
I11
sVmalaysia
p253
I2
sVmozambique
p254
I13
sVgreece
p255
I14
sVnicaragua
p256
I5
sVbrazil
p257
I6
sVafghanistan
p258
I8
sVqatar
p259
I6
sVpalau
p260
I1
sVturkmenistan
p261
I5
sVkuwait
p262
I1
sVpanama
p263
I6
sVnepal
p264
I16
sVluxembourg
p265
I12
sVcroatia
p266
I14
sVvenezuela
p267
I5
sVunited arab emirates
p268
I5
sVguyana
p269
I1
sVsaint kitts and nevis
p270
I7
sVtrinidad and tobago
p271
I1
sVchina
p272
I3
sVarmenia
p273
I15
sVthailand
p274
I3
sViraq
p275
I10
sVbangladesh
p276
I11
sVukraine
p277
I8
sVgambia
p278
I4
sVfinland
p279
I6
sVmacedonia
p280
I11
sVmauritius
p281
I5
sVestonia
p282
I7
sVdominican republic
p283
I5
sVpakistan
p284
I9
sVromania
p285
I8
sVseychelles
p286
I7
sVczech republic
p287
I11
sVmyanmar
p288
I1
sVtunisia
p289
I11
sVunited states
p290
I8
sVaustria
p291
I8
sVhungary
p292
I7
sVcolombia
p293
I9
sVhonduras
p294
I8
sVnew zealand
p295
I6
sVfiji
p296
I2
sVturkey
p297
I9
sVandorra
p298
I8
sVsaudi arabia
p299
I3
sVbelize
p300
I10
sVchad
p301
I9
sVmexico
p302
I7
sVfrance
p303
I7
sVbahamas
p304
I1
sVslovakia
p305
I9
sVperu
p306
I7
sVbolivia
p307
I10
sVmalawi
p308
I2
sVecuador
p309
I11
sVisrael
p310
I11
sVireland
p311
I9
sValgeria
p312
I9
sVlebanon
p313
I10
sVmontenegro
p314
I11
sVtajikistan
p315
I4
sVsri lanka
p316
I5
sVtogo
p317
I4
sVjordan
p318
I14
sVchile
p319
I8
sVoman
p320
I3
sVspain
p321
I7
sVgeorgia
p322
I10
sVmorocco
p323
I9
sVsweden
p324
I10
sVgabon
p325
I9
sVmali
p326
I16
sVrussian federation
p327
I8
sVgrenada
p328
I2
sVyemen
p329
I4
sVbahrain
p330
I5
sVportugal
p331
I8
sVuruguay
p332
I10
sVindia
p333
I13
sVburundi
p334
I25
sVangola
p335
I1
sVbelarus
p336
I7
sVsaint vincent and the grenadines
p337
I9
sVuganda
p338
I3
sVparaguay
p339
I8
sVbotswana
p340
I6
sVitaly
p341
I10
sVsouth africa
p342
I7
sVmalta
p343
I9
sVethiopia
p344
I11
sVvanuatu
p345
I8
sVmadagascar
p346
I10
sVcameroon
p347
I4
sVbenin
p348
I13
sVcanada
p349
I7
sVsingapore
p350
I3
sVsolomon islands
p351
I8
sViceland
p352
I9
sVsaint lucia
p353
I3
sVcosta rica
p354
I10
sVslovenia
p355
I12
sVgermany
p356
I9
sVdominica
p357
I1
sVsuriname
p358
I4
sVtonga
p359
I8
sVmaldives
p360
I14
sVel salvador
p361
I7
sVpoland
p362
I9
sVindonesia
p363
I2
sVcape verde
p364
I6
sVliechtenstein
p365
I15
sVmonaco
p366
I6
ssV60s-oldies-motown-50s-40s
p367
(dp368
Vazerbaijan
p369
I2
sVsenegal
p370
I5
sVcambodia
p371
I2
sVjapan
p372
I3
sVtaiwan
p373
I1
sVcyprus
p374
I2
sVbarbados
p375
I7
sVlithuania
p376
I1
sVmongolia
p377
I1
sVunited kingdom
p378
I3
sVegypt
p379
I1
sVrwanda
p380
I2
sVargentina
p381
I1
sVnorway
p382
I1
sVghana
p383
I2
sVaustralia
p384
I1
sVcuba
p385
I1
sVzambia
p386
I1
sVguatemala
p387
I1
sVzimbabwe
p388
I4
sVbelgium
p389
I2
sVhaiti
p390
I1
sVmauritania
p391
I11
sVnetherlands
p392
I3
sVdenmark
p393
I3
sVsri lanka
p394
I2
sVbulgaria
p395
I1
sVjamaica
p396
I2
sValbania
p397
I2
sVangola
p398
I2
sVserbia
p399
I2
sVmalaysia
p400
I1
sVmozambique
p401
I2
sVhungary
p402
I1
sVnicaragua
p403
I1
sVbrazil
p404
I2
sVafghanistan
p405
I1
sVqatar
p406
I2
sVperu
p407
I1
sVpalau
p408
I1
sVsudan
p409
I2
sVkuwait
p410
I2
sVpanama
p411
I1
sVluxembourg
p412
I1
sVvenezuela
p413
I1
sVunited arab emirates
p414
I1
sVmali
p415
I11
sVsaint kitts and nevis
p416
I2
sVtrinidad and tobago
p417
I1
sVchina
p418
I1
sVarmenia
p419
I1
sVthailand
p420
I1
sVbelize
p421
I2
sVoman
p422
I1
sVfinland
p423
I1
sVmacedonia
p424
I1
sVmauritius
p425
I1
sVantigua and barbuda
p426
I1
sVestonia
p427
I1
sVdominican republic
p428
I1
sVpakistan
p429
I2
sVromania
p430
I1
sVseychelles
p431
I4
sVczech republic
p432
I1
sVtunisia
p433
I2
sVunited states
p434
I1
sVcolombia
p435
I1
sVnew zealand
p436
I1
sVfiji
p437
I2
sVturkey
p438
I3
sVandorra
p439
I2
sVmadagascar
p440
I3
sVbangladesh
p441
I1
sVuruguay
p442
I1
sVfrance
p443
I4
sVbahamas
p444
I1
sVslovakia
p445
I1
sVireland
p446
I3
sVnigeria
p447
I1
sVbolivia
p448
I1
sVmalawi
p449
I2
sVecuador
p450
I1
sVisrael
p451
I1
sVswaziland
p452
I1
sValgeria
p453
I2
sVlebanon
p454
I2
sVmontenegro
p455
I1
sVtogo
p456
I1
sVjordan
p457
I1
sVchile
p458
I1
sVspain
p459
I1
sVmorocco
p460
I1
sVsweden
p461
I3
sVgabon
p462
I4
sVgambia
p463
I1
sVgrenada
p464
I1
sVyemen
p465
I1
sVbahrain
p466
I2
sVchad
p467
I1
sVmexico
p468
I1
sVgreece
p469
I1
sVindia
p470
I1
sVsaint vincent and the grenadines
p471
I1
sVuganda
p472
I1
sVburundi
p473
I1
sVkenya
p474
I1
sVbotswana
p475
I1
sVmalta
p476
I2
sVethiopia
p477
I4
sVswitzerland
p478
I3
sVcameroon
p479
I3
sVbenin
p480
I13
sVcanada
p481
I1
sVsingapore
p482
I1
sVsolomon islands
p483
I1
sViceland
p484
I1
sVsaint lucia
p485
I3
sVsaudi arabia
p486
I1
sVcosta rica
p487
I1
sVgermany
p488
I1
sVsuriname
p489
I1
sVtonga
p490
I1
sVmaldives
p491
I1
sVel salvador
p492
I1
sVpoland
p493
I1
sVcape verde
p494
I1
sVliechtenstein
p495
I3
ssVindietronica-folk-revival-post-punk
p496
(dp497
Vgambia
p498
I17
sVazerbaijan
p499
I13
sVuzbekistan
p500
I10
sVsenegal
p501
I11
sVmalta
p502
I11
sVjapan
p503
I4
sVtaiwan
p504
I5
sVcyprus
p505
I10
sVbarbados
p506
I1
sVbhutan
p507
I24
sVlithuania
p508
I13
sVmongolia
p509
I14
sVandorra
p510
I20
sVtunisia
p511
I9
sVrwanda
p512
I11
sVargentina
p513
I12
sVnorway
p514
I8
sVbahrain
p515
I8
sVaustralia
p516
I16
sVcuba
p517
I6
sVzambia
p518
I15
sVguatemala
p519
I10
sVzimbabwe
p520
I6
sVbelgium
p521
I14
sVhaiti
p522
I11
sVkazakhstan
p523
I13
sVmauritania
p524
I10
sVkyrgyzstan
p525
I9
sVnetherlands
p526
I12
sVportugal
p527
I20
sVdenmark
p528
I3
sVphilippines
p529
I4
sVdjibouti
p530
I8
sVmoldova
p531
I10
sVlatvia
p532
I15
sVnamibia
p533
I8
sVchad
p534
I14
sVswitzerland
p535
I10
sVbulgaria
p536
I6
sVjamaica
p537
I2
sValbania
p538
I17
sVhonduras
p539
I9
sVlebanon
p540
I14
sVmalaysia
p541
I8
sVmozambique
p542
I9
sVgreece
p543
I12
sVnicaragua
p544
I10
sVcanada
p545
I14
sVafghanistan
p546
I15
sVqatar
p547
I13
sVpalau
p548
I6
sVturkmenistan
p549
I9
sVequatorial guinea
p550
I1
sVsudan
p551
I5
sVkuwait
p552
I2
sVpanama
p553
I7
sVnepal
p554
I4
sVluxembourg
p555
I12
sVcroatia
p556
I14
sVvenezuela
p557
I10
sVsaint lucia
p558
I8
sVunited arab emirates
p559
I11
sVmali
p560
I4
sVsaint kitts and nevis
p561
I7
sVtrinidad and tobago
p562
I5
sVchina
p563
I4
sVarmenia
p564
I11
sVthailand
p565
I11
sViraq
p566
I4
sVukraine
p567
I14
sVoman
p568
I16
sVfinland
p569
I3
sVmacedonia
p570
I10
sVmauritius
p571
I7
sVantigua and barbuda
p572
I3
sVdominican republic
p573
I11
sVpakistan
p574
I10
sVromania
p575
I13
sVseychelles
p576
I9
sVczech republic
p577
I12
sVmyanmar
p578
I7
sVegypt
p579
I8
sVunited states
p580
I15
sVaustria
p581
I14
sVhungary
p582
I11
sVcolombia
p583
I15
sVangola
p584
I4
sVnew zealand
p585
I13
sVfiji
p586
I13
sVturkey
p587
I11
sVunited kingdom
p588
I13
sVsaudi arabia
p589
I8
sVbelize
p590
I12
sVbangladesh
p591
I7
sVmexico
p592
I18
sVfrance
p593
I16
sVbahamas
p594
I4
sVslovakia
p595
I13
sVperu
p596
I13
sVnigeria
p597
I2
sVbolivia
p598
I11
sVmalawi
p599
I1
sVecuador
p600
I11
sVisrael
p601
I14
sVswaziland
p602
I2
sValgeria
p603
I7
sVserbia
p604
I11
sVmontenegro
p605
I15
sVtajikistan
p606
I2
sVsri lanka
p607
I6
sVtogo
p608
I9
sVjordan
p609
I7
sVchile
p610
I13
sVspain
p611
I18
sVgeorgia
p612
I17
sVmorocco
p613
I12
sVsweden
p614
I5
sVgabon
p615
I5
sVguyana
p616
I6
sVrussian federation
p617
I13
sVgrenada
p618
I5
sVyemen
p619
I5
sVghana
p620
I2
sVestonia
p621
I15
sVuruguay
p622
I12
sVindia
p623
I7
sVburundi
p624
I5
sVbelarus
p625
I13
sVsaint vincent and the grenadines
p626
I12
sVuganda
p627
I6
sVparaguay
p628
I17
sVkenya
p629
I5
sVireland
p630
I15
sVbotswana
p631
I3
sVitaly
p632
I15
sVsouth africa
p633
I16
sVcambodia
p634
I15
sVethiopia
p635
I8
sVvanuatu
p636
I11
sVmadagascar
p637
I5
sVcameroon
p638
I5
sVbenin
p639
I1
sVbrazil
p640
I10
sVsingapore
p641
I8
sVsolomon islands
p642
I16
sViceland
p643
I15
sVsan marino
p644
I14
sVcosta rica
p645
I10
sVslovenia
p646
I15
sVgermany
p647
I10
sVdominica
p648
I18
sVsuriname
p649
I9
sVtonga
p650
I17
sVmaldives
p651
I11
sVel salvador
p652
I11
sVpoland
p653
I9
sVindonesia
p654
I11
sVcape verde
p655
I7
sVliechtenstein
p656
I4
sVmonaco
p657
I22
ssVr'n'b-hop-hip-r&b-urban
p658
(dp659
Vjamaica
p660
I13
sVseychelles
p661
I1
sVangola
p662
I5
sVmyanmar
p663
I1
sVpakistan
p664
I1
sVghana
p665
I9
sVindia
p666
I1
sVlesotho
p667
I2
sVmalaysia
p668
I2
sVsenegal
p669
I3
sVmozambique
p670
I1
sVuganda
p671
I3
sVkenya
p672
I4
sVtaiwan
p673
I2
sVtajikistan
p674
I4
sVbotswana
p675
I4
sVbarbados
p676
I9
sVbrazil
p677
I1
sVafghanistan
p678
I1
sVsaudi arabia
p679
I1
sViraq
p680
I2
sVpalau
p681
I2
sVbhutan
p682
I2
sVsudan
p683
I6
sVkuwait
p684
I3
sVpanama
p685
I1
sVcameroon
p686
I7
sVbahamas
p687
I8
sVethiopia
p688
I2
sVrwanda
p689
I6
sVswaziland
p690
I9
sVdenmark
p691
I2
sVantigua and barbuda
p692
I7
sVnigeria
p693
I6
sVvenezuela
p694
I1
sVmalawi
p695
I3
sVbenin
p696
I4
sVbahrain
p697
I2
sVcuba
p698
I3
sVsingapore
p699
I2
sVunited arab emirates
p700
I1
sVsaint lucia
p701
I2
sVguyana
p702
I4
sVmontenegro
p703
I1
sVmadagascar
p704
I5
sVsaint kitts and nevis
p705
I5
sVtogo
p706
I2
sVzimbabwe
p707
I7
sVzambia
p708
I2
sVgrenada
p709
I7
sVthailand
p710
I1
sVhaiti
p711
I3
sVbelize
p712
I1
sVgabon
p713
I11
sVdominica
p714
I3
sVnorway
p715
I1
sVnetherlands
p716
I1
sVtrinidad and tobago
p717
I3
sVoman
p718
I1
sVphilippines
p719
I2
sVindonesia
p720
I2
sVcape verde
p721
I3
sVmauritius
p722
I2
sVfiji
p723
I1
sVliechtenstein
p724
I2
sVnamibia
p725
I1
sVmali
p726
I4
sVsri lanka
p727
I4
sVchina
p728
I3
sVdominican republic
p729
I1
sVyemen
p730
I5
sVpoland
p731
I1
ssVhouse-tropical-electro-dj-kygo
p732
(dp733
Vazerbaijan
p734
I1
sVsenegal
p735
I2
sVcambodia
p736
I4
sVhungary
p737
I6
sVtaiwan
p738
I8
sVcyprus
p739
I3
sVbarbados
p740
I3
sVbhutan
p741
I1
sVlithuania
p742
I3
sVmongolia
p743
I1
sVunited kingdom
p744
I2
sVegypt
p745
I6
sVrwanda
p746
I2
sVargentina
p747
I2
sVnorway
p748
I8
sVbahrain
p749
I4
sVaustralia
p750
I3
sVcuba
p751
I4
sVzambia
p752
I1
sVguatemala
p753
I4
sVzimbabwe
p754
I2
sVbelgium
p755
I2
sVhaiti
p756
I5
sVkazakhstan
p757
I1
sVnetherlands
p758
I6
sVdenmark
p759
I6
sVphilippines
p760
I7
sVmoldova
p761
I1
sVlatvia
p762
I2
sVnamibia
p763
I4
sVsri lanka
p764
I7
sVbulgaria
p765
I2
sVjamaica
p766
I5
sVangola
p767
I6
sVlebanon
p768
I2
sVmalaysia
p769
I5
sVnicaragua
p770
I6
sVbrazil
p771
I3
sVafghanistan
p772
I1
sVqatar
p773
I4
sVperu
p774
I3
sVpalau
p775
I2
sVturkmenistan
p776
I1
sVsudan
p777
I2
sVkuwait
p778
I8
sVpanama
p779
I7
sVluxembourg
p780
I5
sVvenezuela
p781
I4
sVunited arab emirates
p782
I7
sVmadagascar
p783
I1
sVtrinidad and tobago
p784
I5
sVchina
p785
I5
sVthailand
p786
I7
sVbelize
p787
I2
sVoman
p788
I5
sVfinland
p789
I5
sVmauritius
p790
I5
sVantigua and barbuda
p791
I5
sVestonia
p792
I5
sVdominican republic
p793
I6
sVpakistan
p794
I6
sVromania
p795
I3
sVczech republic
p796
I1
sVmyanmar
p797
I3
sVtunisia
p798
I3
sVunited states
p799
I3
sVaustria
p800
I2
sVcolombia
p801
I3
sVsamoa
p802
I1
sVnew zealand
p803
I3
sVfiji
p804
I4
sVturkey
p805
I2
sVsaudi arabia
p806
I6
sViraq
p807
I6
sVbangladesh
p808
I3
sVmexico
p809
I3
sVfrance
p810
I3
sVbahamas
p811
I3
sVslovakia
p812
I1
sVireland
p813
I2
sVnigeria
p814
I4
sVbolivia
p815
I3
sVmalawi
p816
I2
sVecuador
p817
I4
sVswaziland
p818
I6
sValgeria
p819
I5
sVserbia
p820
I1
sVtajikistan
p821
I1
sVtogo
p822
I4
sVjordan
p823
I2
sVchile
p824
I2
sVspain
p825
I3
sVmorocco
p826
I6
sVsweden
p827
I6
sVgabon
p828
I1
sVguyana
p829
I2
sVgrenada
p830
I5
sVyemen
p831
I5
sVghana
p832
I3
sVportugal
p833
I1
sVuruguay
p834
I3
sVindia
p835
I5
sVuganda
p836
I6
sVparaguay
p837
I2
sVkenya
p838
I7
sVbotswana
p839
I4
sVitaly
p840
I1
sVsouth africa
p841
I1
sVmalta
p842
I3
sVethiopia
p843
I1
sVswitzerland
p844
I7
sVcanada
p845
I2
sVsingapore
p846
I7
sViceland
p847
I3
sVsaint lucia
p848
I3
sVcosta rica
p849
I2
sVhonduras
p850
I6
sVgermany
p851
I6
sVdominica
p852
I2
sVsuriname
p853
I3
sVel salvador
p854
I6
sVpoland
p855
I4
sVindonesia
p856
I3
sVcape verde
p857
I2
sVliechtenstein
p858
I4
sVmonaco
p859
I4
ssVeast-rap-coast-hop-hip
p860
(dp861
Vazerbaijan
p862
I2
sVuzbekistan
p863
I2
sVsenegal
p864
I7
sVcambodia
p865
I4
sVhungary
p866
I4
sVtaiwan
p867
I2
sVcyprus
p868
I1
sVbarbados
p869
I7
sVbhutan
p870
I1
sVlithuania
p871
I1
sVmongolia
p872
I8
sVunited kingdom
p873
I3
sVegypt
p874
I4
sVrwanda
p875
I11
sVargentina
p876
I2
sVnorway
p877
I5
sVghana
p878
I9
sVaustralia
p879
I5
sVcuba
p880
I5
sVzambia
p881
I7
sVguatemala
p882
I2
sVzimbabwe
p883
I3
sVbelgium
p884
I4
sVhaiti
p885
I3
sVkazakhstan
p886
I2
sVmauritania
p887
I2
sVkyrgyzstan
p888
I1
sVnetherlands
p889
I2
sVdenmark
p890
I3
sVphilippines
p891
I3
sVdjibouti
p892
I4
sVmoldova
p893
I2
sVlatvia
p894
I4
sVnamibia
p895
I3
sVchad
p896
I1
sVswitzerland
p897
I2
sVbulgaria
p898
I3
sVjamaica
p899
I8
sValbania
p900
I4
sVangola
p901
I5
sVserbia
p902
I2
sVmalaysia
p903
I4
sVmozambique
p904
I3
sVgreece
p905
I1
sVnicaragua
p906
I2
sVbrazil
p907
I2
sVafghanistan
p908
I3
sVqatar
p909
I3
sVpalau
p910
I9
sVturkmenistan
p911
I1
sVsudan
p912
I9
sVkuwait
p913
I4
sVpanama
p914
I3
sVnepal
p915
I1
sVluxembourg
p916
I1
sVswaziland
p917
I5
sVcroatia
p918
I1
sVvenezuela
p919
I3
sVunited arab emirates
p920
I5
sVguyana
p921
I9
sVsaint kitts and nevis
p922
I7
sVtrinidad and tobago
p923
I10
sVchina
p924
I4
sVarmenia
p925
I2
sVthailand
p926
I2
sViraq
p927
I4
sVbangladesh
p928
I3
sVukraine
p929
I2
sVgambia
p930
I8
sVfinland
p931
I3
sVmacedonia
p932
I1
sVmauritius
p933
I4
sVantigua and barbuda
p934
I6
sVdominican republic
p935
I4
sVpakistan
p936
I4
sVromania
p937
I4
sVczech republic
p938
I1
sVmyanmar
p939
I4
sVtunisia
p940
I5
sVunited states
p941
I6
sVaustria
p942
I2
sVcolombia
p943
I2
sVhonduras
p944
I4
sVnew zealand
p945
I6
sVfiji
p946
I6
sVturkey
p947
I2
sVandorra
p948
I1
sVsaudi arabia
p949
I5
sVbelize
p950
I1
sVestonia
p951
I3
sVmexico
p952
I2
sVfrance
p953
I4
sVbahamas
p954
I10
sVslovakia
p955
I1
sVireland
p956
I3
sVnigeria
p957
I16
sVbolivia
p958
I1
sVmalawi
p959
I23
sVecuador
p960
I2
sVisrael
p961
I5
sVperu
p962
I2
sValgeria
p963
I4
sVlebanon
p964
I4
sVmontenegro
p965
I1
sVtajikistan
p966
I6
sVsri lanka
p967
I4
sVtogo
p968
I7
sVjordan
p969
I5
sVchile
p970
I2
sVoman
p971
I4
sVspain
p972
I2
sVgeorgia
p973
I1
sVmorocco
p974
I5
sVsweden
p975
I3
sVgabon
p976
I4
sVmali
p977
I6
sVrussian federation
p978
I1
sVgrenada
p979
I9
sVyemen
p980
I4
sVbahrain
p981
I6
sVportugal
p982
I4
sVuruguay
p983
I2
sVindia
p984
I3
sVbelarus
p985
I2
sVsaint vincent and the grenadines
p986
I3
sVuganda
p987
I8
sVparaguay
p988
I2
sVkenya
p989
I11
sVbotswana
p990
I2
sVitaly
p991
I1
sVsouth africa
p992
I1
sVmalta
p993
I3
sVethiopia
p994
I3
sVvanuatu
p995
I3
sVmadagascar
p996
I3
sVcameroon
p997
I5
sVcanada
p998
I5
sVsingapore
p999
I3
sVsolomon islands
p1000
I3
sViceland
p1001
I4
sVsaint lucia
p1002
I9
sVcosta rica
p1003
I2
sVgermany
p1004
I3
sVdominica
p1005
I3
sVsuriname
p1006
I5
sVtonga
p1007
I4
sVmaldives
p1008
I3
sVel salvador
p1009
I2
sVpoland
p1010
I3
sVindonesia
p1011
I2
sVcape verde
p1012
I4
ssVmetal-grunge-screamo-nu-heavy
p1013
(dp1014
Vgambia
p1015
I5
sVazerbaijan
p1016
I6
sVuzbekistan
p1017
I14
sVdjibouti
p1018
I16
sVmalta
p1019
I5
sVjapan
p1020
I4
sVcyprus
p1021
I9
sVbarbados
p1022
I2
sVbhutan
p1023
I3
sVlithuania
p1024
I7
sVmongolia
p1025
I1
sVunited kingdom
p1026
I6
sVegypt
p1027
I5
sVrwanda
p1028
I4
sVargentina
p1029
I9
sVnorway
p1030
I2
sVbahrain
p1031
I1
sVaustralia
p1032
I5
sVcuba
p1033
I11
sVzambia
p1034
I5
sVguatemala
p1035
I12
sVzimbabwe
p1036
I2
sVbelgium
p1037
I5
sVhaiti
p1038
I1
sVkazakhstan
p1039
I12
sVmauritania
p1040
I2
sVkyrgyzstan
p1041
I16
sVnetherlands
p1042
I4
sVportugal
p1043
I9
sVdenmark
p1044
I3
sVphilippines
p1045
I2
sVsenegal
p1046
I1
sVmoldova
p1047
I12
sVlatvia
p1048
I9
sVcroatia
p1049
I8
sVsri lanka
p1050
I4
sVbulgaria
p1051
I15
sValbania
p1052
I3
sVhonduras
p1053
I6
sVlebanon
p1054
I3
sVmalaysia
p1055
I4
sVmozambique
p1056
I8
sVgreece
p1057
I5
sVnicaragua
p1058
I2
sVbrazil
p1059
I6
sVafghanistan
p1060
I6
sVqatar
p1061
I2
sVpalau
p1062
I2
sVturkmenistan
p1063
I22
sVsudan
p1064
I2
sVkuwait
p1065
I1
sVpanama
p1066
I8
sVnepal
p1067
I16
sVluxembourg
p1068
I6
sVnamibia
p1069
I15
sVvenezuela
p1070
I7
sVunited arab emirates
p1071
I4
sVmali
p1072
I1
sVsaint kitts and nevis
p1073
I3
sVtrinidad and tobago
p1074
I1
sVchina
p1075
I1
sVarmenia
p1076
I8
sVthailand
p1077
I4
sVbelize
p1078
I10
sVbangladesh
p1079
I10
sVukraine
p1080
I11
sVoman
p1081
I3
sVfinland
p1082
I5
sVmacedonia
p1083
I7
sVmauritius
p1084
I4
sVdominican republic
p1085
I5
sVpakistan
p1086
I4
sVromania
p1087
I7
sVseychelles
p1088
I8
sVczech republic
p1089
I10
sVmyanmar
p1090
I12
sVtunisia
p1091
I2
sVunited states
p1092
I5
sVaustria
p1093
I10
sVhungary
p1094
I8
sVcolombia
p1095
I7
sVsamoa
p1096
I1
sVnew zealand
p1097
I7
sVfiji
p1098
I1
sVturkey
p1099
I3
sVandorra
p1100
I5
sVmadagascar
p1101
I7
sViraq
p1102
I1
sVestonia
p1103
I5
sVmexico
p1104
I4
sVfrance
p1105
I4
sVslovakia
p1106
I9
sVperu
p1107
I7
sVnigeria
p1108
I1
sVbolivia
p1109
I12
sVmalawi
p1110
I4
sVecuador
p1111
I7
sVisrael
p1112
I8
sVireland
p1113
I5
sValgeria
p1114
I6
sVserbia
p1115
I6
sVmontenegro
p1116
I5
sVtajikistan
p1117
I8
sVtogo
p1118
I1
sVjordan
p1119
I7
sVchile
p1120
I6
sVspain
p1121
I7
sVgeorgia
p1122
I3
sVmorocco
p1123
I2
sVsweden
p1124
I2
sVgabon
p1125
I5
sVguyana
p1126
I10
sVrussian federation
p1127
I12
sVgrenada
p1128
I3
sVyemen
p1129
I3
sVchad
p1130
I3
sVuruguay
p1131
I7
sVindia
p1132
I7
sVparaguay
p1133
I10
sVangola
p1134
I2
sVbelarus
p1135
I13
sVsaint vincent and the grenadines
p1136
I10
sVuganda
p1137
I1
sVburundi
p1138
I3
sVkenya
p1139
I2
sVbotswana
p1140
I2
sVitaly
p1141
I9
sVsouth africa
p1142
I10
sVcambodia
p1143
I1
sVethiopia
p1144
I4
sVvanuatu
p1145
I10
sVswitzerland
p1146
I4
sVcameroon
p1147
I5
sVcanada
p1148
I8
sVsolomon islands
p1149
I5
sViceland
p1150
I1
sVsan marino
p1151
I17
sVsaudi arabia
p1152
I1
sVcosta rica
p1153
I12
sVslovenia
p1154
I11
sVgermany
p1155
I10
sVdominica
p1156
I6
sVsuriname
p1157
I7
sVtonga
p1158
I6
sVmaldives
p1159
I9
sVel salvador
p1160
I9
sVpoland
p1161
I7
sVindonesia
p1162
I4
sVcape verde
p1163
I2
sVliechtenstein
p1164
I8
sVmonaco
p1165
I1
ssVskitz0rz-sunflower-factor-bitch-uitluisteren
p1166
(dp1167
Vazerbaijan
p1168
I6
sVuzbekistan
p1169
I7
sVsenegal
p1170
I11
sVcambodia
p1171
I8
sVjapan
p1172
I2
sVtaiwan
p1173
I19
sVcyprus
p1174
I7
sVbarbados
p1175
I15
sVbhutan
p1176
I6
sVlithuania
p1177
I6
sVmongolia
p1178
I4
sVandorra
p1179
I4
sVegypt
p1180
I8
sVrwanda
p1181
I7
sVargentina
p1182
I3
sVnorway
p1183
I13
sVbahrain
p1184
I16
sVaustralia
p1185
I10
sVcuba
p1186
I12
sVzambia
p1187
I17
sVguatemala
p1188
I6
sVzimbabwe
p1189
I17
sVbelgium
p1190
I6
sVhaiti
p1191
I16
sVkazakhstan
p1192
I6
sVkyrgyzstan
p1193
I1
sVnetherlands
p1194
I7
sVdenmark
p1195
I15
sVphilippines
p1196
I24
sVdjibouti
p1197
I2
sVmoldova
p1198
I6
sVlatvia
p1199
I7
sVnamibia
p1200
I3
sVswitzerland
p1201
I8
sVbulgaria
p1202
I6
sVjamaica
p1203
I16
sValbania
p1204
I8
sVsamoa
p1205
I4
sVserbia
p1206
I7
sVmalaysia
p1207
I18
sVmozambique
p1208
I4
sVgreece
p1209
I6
sVnicaragua
p1210
I18
sVbrazil
p1211
I17
sVafghanistan
p1212
I5
sVqatar
p1213
I14
sVpalau
p1214
I18
sVsudan
p1215
I18
sVkuwait
p1216
I27
sVpanama
p1217
I13
sVnepal
p1218
I5
sVluxembourg
p1219
I5
sVcroatia
p1220
I6
sVvenezuela
p1221
I14
sVunited arab emirates
p1222
I13
sVguyana
p1223
I15
sVsaint kitts and nevis
p1224
I11
sVtrinidad and tobago
p1225
I20
sVchina
p1226
I23
sVarmenia
p1227
I4
sVthailand
p1228
I17
sViraq
p1229
I16
sVbangladesh
p1230
I7
sVukraine
p1231
I5
sVgambia
p1232
I8
sVfinland
p1233
I6
sVmacedonia
p1234
I5
sVmauritius
p1235
I16
sVantigua and barbuda
p1236
I25
sVestonia
p1237
I8
sVdominican republic
p1238
I10
sVpakistan
p1239
I8
sVromania
p1240
I6
sVseychelles
p1241
I11
sVczech republic
p1242
I7
sVmyanmar
p1243
I7
sVtunisia
p1244
I6
sVunited states
p1245
I9
sVaustria
p1246
I6
sVhungary
p1247
I7
sVcolombia
p1248
I4
sVangola
p1249
I23
sVnew zealand
p1250
I9
sVfiji
p1251
I15
sVturkey
p1252
I6
sVunited kingdom
p1253
I7
sVsaudi arabia
p1254
I21
sVbelize
p1255
I8
sVchad
p1256
I3
sVmexico
p1257
I3
sVfrance
p1258
I5
sVbahamas
p1259
I21
sVslovakia
p1260
I6
sVswaziland
p1261
I10
sVnigeria
p1262
I12
sVbolivia
p1263
I6
sVmalawi
p1264
I10
sVecuador
p1265
I6
sVisrael
p1266
I5
sVperu
p1267
I9
sValgeria
p1268
I9
sVlebanon
p1269
I6
sVmontenegro
p1270
I5
sVtajikistan
p1271
I15
sVsri lanka
p1272
I12
sVtogo
p1273
I14
sVjordan
p1274
I10
sVchile
p1275
I5
sVoman
p1276
I10
sVspain
p1277
I6
sVgeorgia
p1278
I4
sVmorocco
p1279
I6
sVsweden
p1280
I10
sVgabon
p1281
I5
sVmali
p1282
I5
sVrussian federation
p1283
I5
sVgrenada
p1284
I14
sVindia
p1285
I7
sVyemen
p1286
I18
sVghana
p1287
I13
sVportugal
p1288
I4
sVuruguay
p1289
I7
sVsan marino
p1290
I3
sVbelarus
p1291
I5
sVsaint vincent and the grenadines
p1292
I10
sVuganda
p1293
I11
sVparaguay
p1294
I4
sVkenya
p1295
I14
sVireland
p1296
I6
sVbotswana
p1297
I18
sVitaly
p1298
I5
sVsouth africa
p1299
I7
sVmalta
p1300
I9
sVethiopia
p1301
I4
sVvanuatu
p1302
I5
sVmadagascar
p1303
I11
sVcameroon
p1304
I17
sVcanada
p1305
I11
sVsingapore
p1306
I19
sVsolomon islands
p1307
I6
sViceland
p1308
I7
sVsaint lucia
p1309
I8
sVcosta rica
p1310
I5
sVslovenia
p1311
I5
sVhonduras
p1312
I8
sVgermany
p1313
I6
sVdominica
p1314
I8
sVsuriname
p1315
I11
sVtonga
p1316
I6
sVmaldives
p1317
I6
sVel salvador
p1318
I8
sVpoland
p1319
I8
sVindonesia
p1320
I13
sVcape verde
p1321
I6
sVliechtenstein
p1322
I3
sVmonaco
p1323
I6
ssVminimal-trip-hop-idm-techno
p1324
(dp1325
Vazerbaijan
p1326
I8
sVuzbekistan
p1327
I2
sVsenegal
p1328
I1
sVcambodia
p1329
I9
sVjapan
p1330
I2
sVcyprus
p1331
I1
sVbhutan
p1332
I6
sVlithuania
p1333
I5
sVmongolia
p1334
I13
sVandorra
p1335
I8
sVargentina
p1336
I5
sVnorway
p1337
I1
sVbahrain
p1338
I1
sVaustralia
p1339
I3
sVcuba
p1340
I2
sVbelgium
p1341
I3
sVhaiti
p1342
I3
sVkazakhstan
p1343
I4
sVmauritania
p1344
I5
sVkyrgyzstan
p1345
I4
sVsuriname
p1346
I2
sVdenmark
p1347
I1
sVmoldova
p1348
I4
sVlatvia
p1349
I3
sVcroatia
p1350
I6
sVchad
p1351
I11
sVswitzerland
p1352
I3
sVbulgaria
p1353
I4
sValbania
p1354
I7
sVhonduras
p1355
I3
sVserbia
p1356
I9
sVmozambique
p1357
I5
sVgreece
p1358
I9
sVnicaragua
p1359
I1
sVafghanistan
p1360
I9
sVqatar
p1361
I1
sVpalau
p1362
I2
sVturkmenistan
p1363
I6
sVsudan
p1364
I1
sVluxembourg
p1365
I4
sVswaziland
p1366
I7
sVnamibia
p1367
I4
sVvenezuela
p1368
I1
sVsaint kitts and nevis
p1369
I2
sVtrinidad and tobago
p1370
I1
sVarmenia
p1371
I3
sViraq
p1372
I2
sVukraine
p1373
I5
sVoman
p1374
I1
sVmacedonia
p1375
I13
sVmauritius
p1376
I1
sVdominican republic
p1377
I2
sVromania
p1378
I5
sVseychelles
p1379
I2
sVczech republic
p1380
I5
sVmyanmar
p1381
I11
sVtunisia
p1382
I11
sVunited states
p1383
I1
sVaustria
p1384
I3
sVhungary
p1385
I4
sVcolombia
p1386
I2
sVnew zealand
p1387
I3
sVfiji
p1388
I3
sVturkey
p1389
I6
sVunited kingdom
p1390
I4
sVportugal
p1391
I3
sVmexico
p1392
I4
sVfrance
p1393
I5
sVslovakia
p1394
I6
sVperu
p1395
I3
sVbolivia
p1396
I2
sVecuador
p1397
I2
sVisrael
p1398
I4
sVireland
p1399
I4
sValgeria
p1400
I1
sVlebanon
p1401
I3
sVmontenegro
p1402
I8
sVtogo
p1403
I3
sVchile
p1404
I5
sVspain
p1405
I4
sVgeorgia
p1406
I14
sVmorocco
p1407
I4
sVsweden
p1408
I2
sVgambia
p1409
I4
sVrussian federation
p1410
I5
sVyemen
p1411
I1
sVestonia
p1412
I4
sVuruguay
p1413
I2
sVsan marino
p1414
I5
sVburundi
p1415
I11
sVbelarus
p1416
I4
sVsaint vincent and the grenadines
p1417
I2
sVuganda
p1418
I5
sVparaguay
p1419
I3
sVkenya
p1420
I1
sVbotswana
p1421
I2
sVitaly
p1422
I5
sVsouth africa
p1423
I4
sVmalta
p1424
I3
sVethiopia
p1425
I6
sVvanuatu
p1426
I3
sVbenin
p1427
I1
sVsingapore
p1428
I1
sVsolomon islands
p1429
I6
sViceland
p1430
I7
sVsaint lucia
p1431
I2
sVcosta rica
p1432
I3
sVslovenia
p1433
I5
sVgermany
p1434
I3
sVtonga
p1435
I5
sVmaldives
p1436
I1
sVpoland
p1437
I2
sVcape verde
p1438
I4
sVliechtenstein
p1439
I8
ss.